; Function Attrs: mustprogress uwtable
define dso_local noundef ptr @_ZN3net26QuicClientPushPromiseIndex11GetPromisedERKNSt7__cxx1112basic_stringIcSt11char_traitsIcESaIcEEE(ptr noundef nonnull align 8 dereferenceable(64) %this, ptr noundef nonnull align 8 dereferenceable(32) %url) local_unnamed_addr #4 align 2 {
entry:
  %promised_by_url_ = getelementptr inbounds i8, ptr %this, i64 8
  %call.i = tail call ptr @_ZNSt10_HashtableINSt7__cxx1112basic_stringIcSt11char_traitsIcESaIcEEESt4pairIKS5_PN3net22QuicClientPromisedInfoEESaISB_ENSt8__detail10_Select1stESt8equal_toIS5_ESt4hashIS5_ENSD_18_Mod_range_hashingENSD_20_Default_ranged_hashENSD_20_Prime_rehash_policyENSD_17_Hashtable_traitsILb1ELb0ELb1EEEE4findERS7_(ptr noundef nonnull align 8 dereferenceable(56) %promised_by_url_, ptr noundef nonnull align 8 dereferenceable(32) %url)
  %cmp.i = icmp eq ptr %call.i, null
  br i1 %cmp.i, label %return, label %if.end

if.end:                                           ; preds = %entry
  %second = getelementptr inbounds i8, ptr %call.i, i64 40
  %0 = load ptr, ptr %second, align 8
  br label %return

return:                                           ; preds = %entry, %if.end
  %retval.0 = phi ptr [ %0, %if.end ], [ null, %entry ]
  ret ptr %retval.0
}